target datalayout = "e-m:e-p270:32:32-p271:32:32-p272:64:64-i64:64-i128:128-f80:128-n8:16:32:64-S128"
target triple = "x86_64-pc-linux-gnu"

%struct.sha512_state_st = type { [8 x i64], i64, i64, %union.anon.1, i32, i32 }
%union.anon.1 = type { [16 x i64] }

; Function Attrs: nounwind uwtable
define internal void @tls1_sha512_final_raw(ptr noundef %0, ptr noundef %1) #0 {
  %3 = alloca ptr, align 8
  %4 = alloca ptr, align 8
  %5 = alloca ptr, align 8
  %6 = alloca i32, align 4
  store ptr %0, ptr %3, align 8, !tbaa !26
  store ptr %1, ptr %4, align 8, !tbaa !11
  call void @llvm.lifetime.start.p0(i64 8, ptr %5) #6
  %7 = load ptr, ptr %3, align 8, !tbaa !26
  store ptr %7, ptr %5, align 8, !tbaa !38
  call void @llvm.lifetime.start.p0(i64 4, ptr %6) #6
  store i32 0, ptr %6, align 4, !tbaa !13
  br label %8

8:                                                ; preds = %91, %2
  %9 = load i32, ptr %6, align 4, !tbaa !13
  %10 = icmp ult i32 %9, 8
  br i1 %10, label %11, label %94

11:                                               ; preds = %8
  %12 = load ptr, ptr %5, align 8, !tbaa !38
  %13 = getelementptr inbounds nuw %struct.sha512_state_st, ptr %12, i32 0, i32 0
  %14 = load i32, ptr %6, align 4, !tbaa !13
  %15 = zext i32 %14 to i64
  %16 = getelementptr inbounds nuw [8 x i64], ptr %13, i64 0, i64 %15
  %17 = load i64, ptr %16, align 8, !tbaa !24
  %18 = lshr i64 %17, 56
  %19 = trunc i64 %18 to i8
  %20 = load ptr, ptr %4, align 8, !tbaa !11
  %21 = getelementptr inbounds nuw i8, ptr %20, i32 1
  store ptr %21, ptr %4, align 8, !tbaa !11
  store i8 %19, ptr %20, align 1, !tbaa !15
  %22 = load ptr, ptr %5, align 8, !tbaa !38
  %23 = getelementptr inbounds nuw %struct.sha512_state_st, ptr %22, i32 0, i32 0
  %24 = load i32, ptr %6, align 4, !tbaa !13
  %25 = zext i32 %24 to i64
  %26 = getelementptr inbounds nuw [8 x i64], ptr %23, i64 0, i64 %25
  %27 = load i64, ptr %26, align 8, !tbaa !24
  %28 = lshr i64 %27, 48
  %29 = trunc i64 %28 to i8
  %30 = load ptr, ptr %4, align 8, !tbaa !11
  %31 = getelementptr inbounds nuw i8, ptr %30, i32 1
  store ptr %31, ptr %4, align 8, !tbaa !11
  store i8 %29, ptr %30, align 1, !tbaa !15
  %32 = load ptr, ptr %5, align 8, !tbaa !38
  %33 = getelementptr inbounds nuw %struct.sha512_state_st, ptr %32, i32 0, i32 0
  %34 = load i32, ptr %6, align 4, !tbaa !13
  %35 = zext i32 %34 to i64
  %36 = getelementptr inbounds nuw [8 x i64], ptr %33, i64 0, i64 %35
  %37 = load i64, ptr %36, align 8, !tbaa !24
  %38 = lshr i64 %37, 40
  %39 = trunc i64 %38 to i8
  %40 = load ptr, ptr %4, align 8, !tbaa !11
  %41 = getelementptr inbounds nuw i8, ptr %40, i32 1
  store ptr %41, ptr %4, align 8, !tbaa !11
  store i8 %39, ptr %40, align 1, !tbaa !15
  %42 = load ptr, ptr %5, align 8, !tbaa !38
  %43 = getelementptr inbounds nuw %struct.sha512_state_st, ptr %42, i32 0, i32 0
  %44 = load i32, ptr %6, align 4, !tbaa !13
  %45 = zext i32 %44 to i64
  %46 = getelementptr inbounds nuw [8 x i64], ptr %43, i64 0, i64 %45
  %47 = load i64, ptr %46, align 8, !tbaa !24
  %48 = lshr i64 %47, 32
  %49 = trunc i64 %48 to i8
  %50 = load ptr, ptr %4, align 8, !tbaa !11
  %51 = getelementptr inbounds nuw i8, ptr %50, i32 1
  store ptr %51, ptr %4, align 8, !tbaa !11
  store i8 %49, ptr %50, align 1, !tbaa !15
  %52 = load ptr, ptr %5, align 8, !tbaa !38
  %53 = getelementptr inbounds nuw %struct.sha512_state_st, ptr %52, i32 0, i32 0
  %54 = load i32, ptr %6, align 4, !tbaa !13
  %55 = zext i32 %54 to i64
  %56 = getelementptr inbounds nuw [8 x i64], ptr %53, i64 0, i64 %55
  %57 = load i64, ptr %56, align 8, !tbaa !24
  %58 = lshr i64 %57, 24
  %59 = trunc i64 %58 to i8
  %60 = load ptr, ptr %4, align 8, !tbaa !11
  %61 = getelementptr inbounds nuw i8, ptr %60, i32 1
  store ptr %61, ptr %4, align 8, !tbaa !11
  store i8 %59, ptr %60, align 1, !tbaa !15
  %62 = load ptr, ptr %5, align 8, !tbaa !38
  %63 = getelementptr inbounds nuw %struct.sha512_state_st, ptr %62, i32 0, i32 0
  %64 = load i32, ptr %6, align 4, !tbaa !13
  %65 = zext i32 %64 to i64
  %66 = getelementptr inbounds nuw [8 x i64], ptr %63, i64 0, i64 %65
  %67 = load i64, ptr %66, align 8, !tbaa !24
  %68 = lshr i64 %67, 16
  %69 = trunc i64 %68 to i8
  %70 = load ptr, ptr %4, align 8, !tbaa !11
  %71 = getelementptr inbounds nuw i8, ptr %70, i32 1
  store ptr %71, ptr %4, align 8, !tbaa !11
  store i8 %69, ptr %70, align 1, !tbaa !15
  %72 = load ptr, ptr %5, align 8, !tbaa !38
  %73 = getelementptr inbounds nuw %struct.sha512_state_st, ptr %72, i32 0, i32 0
  %74 = load i32, ptr %6, align 4, !tbaa !13
  %75 = zext i32 %74 to i64
  %76 = getelementptr inbounds nuw [8 x i64], ptr %73, i64 0, i64 %75
  %77 = load i64, ptr %76, align 8, !tbaa !24
  %78 = lshr i64 %77, 8
  %79 = trunc i64 %78 to i8
  %80 = load ptr, ptr %4, align 8, !tbaa !11
  %81 = getelementptr inbounds nuw i8, ptr %80, i32 1
  store ptr %81, ptr %4, align 8, !tbaa !11
  store i8 %79, ptr %80, align 1, !tbaa !15
  %82 = load ptr, ptr %5, align 8, !tbaa !38
  %83 = getelementptr inbounds nuw %struct.sha512_state_st, ptr %82, i32 0, i32 0
  %84 = load i32, ptr %6, align 4, !tbaa !13
  %85 = zext i32 %84 to i64
  %86 = getelementptr inbounds nuw [8 x i64], ptr %83, i64 0, i64 %85
  %87 = load i64, ptr %86, align 8, !tbaa !24
  %88 = trunc i64 %87 to i8
  %89 = load ptr, ptr %4, align 8, !tbaa !11
  %90 = getelementptr inbounds nuw i8, ptr %89, i32 1
  store ptr %90, ptr %4, align 8, !tbaa !11
  store i8 %88, ptr %89, align 1, !tbaa !15
  br label %91

91:                                               ; preds = %11
  %92 = load i32, ptr %6, align 4, !tbaa !13
  %93 = add i32 %92, 1
  store i32 %93, ptr %6, align 4, !tbaa !13
  br label %8, !llvm.loop !40

94:                                               ; preds = %8
  call void @llvm.lifetime.end.p0(i64 4, ptr %6) #6
  call void @llvm.lifetime.end.p0(i64 8, ptr %5) #6
  ret void
}